; ModuleID = '32/1004.cpp'
source_filename = "32/1004.cpp"
target datalayout = "e-m:e-p270:32:32-p271:32:32-p272:64:64-i64:64-f80:128-n8:16:32:64-S128"
target triple = "x86_64-pc-linux-gnu"

%"class.std::ios_base::Init" = type { i8 }
%"class.std::basic_istream" = type { i32 (...)**, i64, %"class.std::basic_ios" }
%"class.std::basic_ios" = type { %"class.std::ios_base", %"class.std::basic_ostream"*, i8, i8, %"class.std::basic_streambuf"*, %"class.std::ctype"*, %"class.std::num_put"*, %"class.std::num_get"* }
%"class.std::ios_base" = type { i32 (...)**, i64, i64, i32, i32, i32, %"struct.std::ios_base::_Callback_list"*, %"struct.std::ios_base::_Words", [8 x %"struct.std::ios_base::_Words"], i32, %"struct.std::ios_base::_Words"*, %"class.std::locale" }
%"struct.std::ios_base::_Callback_list" = type { %"struct.std::ios_base::_Callback_list"*, void (i32, %"class.std::ios_base"*, i32)*, i32, i32 }
%"struct.std::ios_base::_Words" = type { i8*, i64 }
%"class.std::locale" = type { %"class.std::locale::_Impl"* }
%"class.std::locale::_Impl" = type { i32, %"class.std::locale::facet"**, i64, %"class.std::locale::facet"**, i8** }
%"class.std::locale::facet" = type <{ i32 (...)**, i32, [4 x i8] }>
%"class.std::basic_ostream" = type { i32 (...)**, %"class.std::basic_ios" }
%"class.std::basic_streambuf" = type { i32 (...)**, i8*, i8*, i8*, i8*, i8*, i8*, %"class.std::locale" }
%"class.std::ctype" = type <{ %"class.std::locale::facet.base", [4 x i8], %struct.__locale_struct*, i8, [7 x i8], i32*, i32*, i16*, i8, [256 x i8], [256 x i8], i8, [6 x i8] }>
%"class.std::locale::facet.base" = type <{ i32 (...)**, i32 }>
%struct.__locale_struct = type { [13 x %struct.__locale_data*], i16*, i32*, i32*, [13 x i8*] }
%struct.__locale_data = type opaque
%"class.std::num_put" = type { %"class.std::locale::facet.base", [4 x i8] }
%"class.std::num_get" = type { %"class.std::locale::facet.base", [4 x i8] }

@_ZStL8__ioinit = internal global %"class.std::ios_base::Init" zeroinitializer, align 1
@__dso_handle = external hidden global i8
@_ZSt3cin = external dso_local global %"class.std::basic_istream", align 8
@_ZSt4cout = external dso_local global %"class.std::basic_ostream", align 8
@llvm.global_ctors = appending global [1 x { i32, void ()*, i8* }] [{ i32, void ()*, i8* } { i32 65535, void ()* @_GLOBAL__sub_I_1004.cpp, i8* null }]

; Function Attrs: noinline uwtable
define internal void @__cxx_global_var_init() #0 section ".text.startup" {
  call void @_ZNSt8ios_base4InitC1Ev(%"class.std::ios_base::Init"* @_ZStL8__ioinit)
  %1 = call i32 @__cxa_atexit(void (i8*)* bitcast (void (%"class.std::ios_base::Init"*)* @_ZNSt8ios_base4InitD1Ev to void (i8*)*), i8* getelementptr inbounds (%"class.std::ios_base::Init", %"class.std::ios_base::Init"* @_ZStL8__ioinit, i32 0, i32 0), i8* @__dso_handle) #3
  ret void
}

declare dso_local void @_ZNSt8ios_base4InitC1Ev(%"class.std::ios_base::Init"*) unnamed_addr #1

; Function Attrs: nounwind
declare dso_local void @_ZNSt8ios_base4InitD1Ev(%"class.std::ios_base::Init"*) unnamed_addr #2

; Function Attrs: nounwind
declare dso_local i32 @__cxa_atexit(void (i8*)*, i8*, i8*) #3

; Function Attrs: noinline norecurse uwtable
define dso_local i32 @main() #4 {
  %1 = alloca i32, align 4
  %2 = alloca [101 x i8], align 16
  %3 = alloca [101 x i8], align 16
  %4 = alloca i32, align 4
  %5 = alloca i32, align 4
  %6 = alloca i32, align 4
  %7 = alloca i32, align 4
  store i32 0, i32* %1, align 4
  %8 = call dereferenceable(280) %"class.std::basic_istream"* @_ZNSirsERi(%"class.std::basic_istream"* @_ZSt3cin, i32* dereferenceable(4) %7)
  %9 = call i32 @getchar()
  br label %10

10:                                               ; preds = %84, %0
  %11 = load i32, i32* %7, align 4
  %12 = add nsw i32 %11, -1
  store i32 %12, i32* %7, align 4
  %13 = icmp ne i32 %11, 0
  br i1 %13, label %14, label %89

14:                                               ; preds = %10
  %15 = getelementptr inbounds [101 x i8], [101 x i8]* %2, i64 0, i64 0
  %16 = call dereferenceable(280) %"class.std::basic_istream"* @_ZNSi7getlineEPcl(%"class.std::basic_istream"* @_ZSt3cin, i8* %15, i64 101)
  %17 = getelementptr inbounds [101 x i8], [101 x i8]* %3, i64 0, i64 0
  %18 = call dereferenceable(280) %"class.std::basic_istream"* @_ZNSi7getlineEPcl(%"class.std::basic_istream"* @_ZSt3cin, i8* %17, i64 101)
  %19 = getelementptr inbounds [101 x i8], [101 x i8]* %2, i64 0, i64 0
  %20 = call i64 @strlen(i8* %19) #6
  %21 = trunc i64 %20 to i32
  store i32 %21, i32* %4, align 4
  %22 = getelementptr inbounds [101 x i8], [101 x i8]* %3, i64 0, i64 0
  %23 = call i64 @strlen(i8* %22) #6
  %24 = trunc i64 %23 to i32
  store i32 %24, i32* %5, align 4
  %25 = load i32, i32* %5, align 4
  %26 = sub nsw i32 %25, 1
  store i32 %26, i32* %6, align 4
  br label %27

27:                                               ; preds = %81, %14
  %28 = load i32, i32* %6, align 4
  %29 = icmp sge i32 %28, 0
  br i1 %29, label %30, label %84

30:                                               ; preds = %27
  %31 = load i32, i32* %6, align 4
  %32 = sext i32 %31 to i64
  %33 = getelementptr inbounds [101 x i8], [101 x i8]* %3, i64 0, i64 %32
  %34 = load i8, i8* %33, align 1
  %35 = sext i8 %34 to i32
  %36 = sub nsw i32 %35, 48
  %37 = load i32, i32* %6, align 4
  %38 = load i32, i32* %4, align 4
  %39 = add nsw i32 %37, %38
  %40 = load i32, i32* %5, align 4
  %41 = sub nsw i32 %39, %40
  %42 = sext i32 %41 to i64
  %43 = getelementptr inbounds [101 x i8], [101 x i8]* %2, i64 0, i64 %42
  %44 = load i8, i8* %43, align 1
  %45 = sext i8 %44 to i32
  %46 = sub nsw i32 %45, %36
  %47 = trunc i32 %46 to i8
  store i8 %47, i8* %43, align 1
  %48 = load i32, i32* %6, align 4
  %49 = load i32, i32* %4, align 4
  %50 = add nsw i32 %48, %49
  %51 = load i32, i32* %5, align 4
  %52 = sub nsw i32 %50, %51
  %53 = sext i32 %52 to i64
  %54 = getelementptr inbounds [101 x i8], [101 x i8]* %2, i64 0, i64 %53
  %55 = load i8, i8* %54, align 1
  %56 = sext i8 %55 to i32
  %57 = icmp slt i32 %56, 48
  br i1 %57, label %58, label %80

58:                                               ; preds = %30
  %59 = load i32, i32* %6, align 4
  %60 = load i32, i32* %4, align 4
  %61 = add nsw i32 %59, %60
  %62 = load i32, i32* %5, align 4
  %63 = sub nsw i32 %61, %62
  %64 = sext i32 %63 to i64
  %65 = getelementptr inbounds [101 x i8], [101 x i8]* %2, i64 0, i64 %64
  %66 = load i8, i8* %65, align 1
  %67 = sext i8 %66 to i32
  %68 = add nsw i32 %67, 10
  %69 = trunc i32 %68 to i8
  store i8 %69, i8* %65, align 1
  %70 = load i32, i32* %6, align 4
  %71 = load i32, i32* %4, align 4
  %72 = add nsw i32 %70, %71
  %73 = load i32, i32* %5, align 4
  %74 = sub nsw i32 %72, %73
  %75 = sub nsw i32 %74, 1
  %76 = sext i32 %75 to i64
  %77 = getelementptr inbounds [101 x i8], [101 x i8]* %2, i64 0, i64 %76
  %78 = load i8, i8* %77, align 1
  %79 = add i8 %78, -1
  store i8 %79, i8* %77, align 1
  br label %80

80:                                               ; preds = %58, %30
  br label %81

81:                                               ; preds = %80
  %82 = load i32, i32* %6, align 4
  %83 = add nsw i32 %82, -1
  store i32 %83, i32* %6, align 4
  br label %27

84:                                               ; preds = %27
  %85 = getelementptr inbounds [101 x i8], [101 x i8]* %2, i64 0, i64 0
  %86 = call dereferenceable(272) %"class.std::basic_ostream"* @_ZStlsISt11char_traitsIcEERSt13basic_ostreamIcT_ES5_PKc(%"class.std::basic_ostream"* dereferenceable(272) @_ZSt4cout, i8* %85)
  %87 = call dereferenceable(272) %"class.std::basic_ostream"* @_ZNSolsEPFRSoS_E(%"class.std::basic_ostream"* %86, %"class.std::basic_ostream"* (%"class.std::basic_ostream"*)* @_ZSt4endlIcSt11char_traitsIcEERSt13basic_ostreamIT_T0_ES6_)
  %88 = call i32 @getchar()
  br label %10

89:                                               ; preds = %10
  %90 = load i32, i32* %1, align 4
  ret i32 %90
}

declare dso_local dereferenceable(280) %"class.std::basic_istream"* @_ZNSirsERi(%"class.std::basic_istream"*, i32* dereferenceable(4)) #1

declare dso_local i32 @getchar() #1

declare dso_local dereferenceable(280) %"class.std::basic_istream"* @_ZNSi7getlineEPcl(%"class.std::basic_istream"*, i8*, i64) #1

; Function Attrs: nounwind readonly
declare dso_local i64 @strlen(i8*) #5

declare dso_local dereferenceable(272) %"class.std::basic_ostream"* @_ZStlsISt11char_traitsIcEERSt13basic_ostreamIcT_ES5_PKc(%"class.std::basic_ostream"* dereferenceable(272), i8*) #1

declare dso_local dereferenceable(272) %"class.std::basic_ostream"* @_ZNSolsEPFRSoS_E(%"class.std::basic_ostream"*, %"class.std::basic_ostream"* (%"class.std::basic_ostream"*)*) #1

declare dso_local dereferenceable(272) %"class.std::basic_ostream"* @_ZSt4endlIcSt11char_traitsIcEERSt13basic_ostreamIT_T0_ES6_(%"class.std::basic_ostream"* dereferenceable(272)) #1

; Function Attrs: noinline uwtable
define internal void @_GLOBAL__sub_I_1004.cpp() #0 section ".text.startup" {
  call void @__cxx_global_var_init()
  ret void
}


!llvm.module.flags = !{!0}
!llvm.ident = !{!1}

!0 = !{i32 1, !"wchar_size", i32 4}
!1 = !{!"clang version 10.0.0-4ubuntu1 "}
